target datalayout = "e-m:e-p270:32:32-p271:32:32-p272:64:64-i64:64-i128:128-f80:128-n8:16:32:64-S128"
target triple = "x86_64-pc-linux-gnu"

%"class.pxrInternal_v0_24__pxrReserved__::SdfPath" = type { %"struct.pxrInternal_v0_24__pxrReserved__::Sdf_PathNodeHandleImpl", %"struct.pxrInternal_v0_24__pxrReserved__::Sdf_PathNodeHandleImpl.33" }
%"struct.pxrInternal_v0_24__pxrReserved__::Sdf_PathNodeHandleImpl" = type { %"struct.pxrInternal_v0_24__pxrReserved__::Sdf_Pool<pxrInternal_v0_24__pxrReserved__::Sdf_PathPrimTag, 24, 8>::Handle" }
%"struct.pxrInternal_v0_24__pxrReserved__::Sdf_Pool<pxrInternal_v0_24__pxrReserved__::Sdf_PathPrimTag, 24, 8>::Handle" = type { i32 }
%"struct.pxrInternal_v0_24__pxrReserved__::Sdf_PathNodeHandleImpl.33" = type { %"struct.pxrInternal_v0_24__pxrReserved__::Sdf_Pool<pxrInternal_v0_24__pxrReserved__::Sdf_PathPropTag, 24, 8>::Handle" }
%"struct.pxrInternal_v0_24__pxrReserved__::Sdf_Pool<pxrInternal_v0_24__pxrReserved__::Sdf_PathPropTag, 24, 8>::Handle" = type { i32 }
%"struct.std::pair.165" = type { %"class.pxrInternal_v0_24__pxrReserved__::SdfPath", i32 }
%"struct.std::atomic.83" = type { %"struct.std::__atomic_base.84" }
%"struct.std::__atomic_base.84" = type { i32 }
%"class.pxrInternal_v0_24__pxrReserved__::Sdf_PathNode" = type { %"class.pxrInternal_v0_24__pxrReserved__::TfDelegatedCountPtr.176", %"struct.std::atomic.83", i16, i8, i8 }
%"class.pxrInternal_v0_24__pxrReserved__::TfDelegatedCountPtr.176" = type { ptr }

@_ZN32pxrInternal_v0_24__pxrReserved__8Sdf_PoolINS_15Sdf_PathPrimTagELj24ELj8ELj16384EE13_regionStartsE = external global [257 x ptr], align 16

; Function Attrs: mustprogress nounwind uwtable
define linkonce_odr noundef ptr @_ZN32pxrInternal_v0_24__pxrReserved__8Sdf_PoolINS_15Sdf_PathPrimTagELj24ELj8ELj16384EE7_GetPtrEjj(i32 noundef %0, i32 noundef %1) #0 comdat align 2 {
  %3 = alloca i32, align 4
  %4 = alloca i32, align 4
  store i32 %0, ptr %3, align 4
  store i32 %1, ptr %4, align 4
  %5 = load i32, ptr %3, align 4
  %6 = zext i32 %5 to i64
  %7 = getelementptr inbounds [257 x ptr], ptr @_ZN32pxrInternal_v0_24__pxrReserved__8Sdf_PoolINS_15Sdf_PathPrimTagELj24ELj8ELj16384EE13_regionStartsE, i64 0, i64 %6
  %8 = load ptr, ptr %7, align 8
  %9 = load i32, ptr %4, align 4
  %10 = mul i32 %9, 24
  %11 = zext i32 %10 to i64
  %12 = getelementptr inbounds i8, ptr %8, i64 %11
  ret ptr %12
}

; Function Attrs: mustprogress nounwind uwtable
define linkonce_odr noundef ptr @_ZNK32pxrInternal_v0_24__pxrReserved__8Sdf_PoolINS_15Sdf_PathPrimTagELj24ELj8ELj16384EE6Handle6GetPtrEv(ptr noundef nonnull align 4 dereferenceable(4) %0) #0 comdat align 2 personality ptr @__gxx_personality_v0 {
  %2 = alloca ptr, align 8
  store ptr %0, ptr %2, align 8
  %3 = load ptr, ptr %2, align 8
  %4 = getelementptr inbounds nuw %"struct.pxrInternal_v0_24__pxrReserved__::Sdf_Pool<pxrInternal_v0_24__pxrReserved__::Sdf_PathPrimTag, 24, 8>::Handle", ptr %3, i32 0, i32 0
  %5 = load i32, ptr %4, align 4
  %6 = and i32 %5, 255
  %7 = getelementptr inbounds nuw %"struct.pxrInternal_v0_24__pxrReserved__::Sdf_Pool<pxrInternal_v0_24__pxrReserved__::Sdf_PathPrimTag, 24, 8>::Handle", ptr %3, i32 0, i32 0
  %8 = load i32, ptr %7, align 4
  %9 = lshr i32 %8, 8
  %10 = invoke noundef ptr @_ZN32pxrInternal_v0_24__pxrReserved__8Sdf_PoolINS_15Sdf_PathPrimTagELj24ELj8ELj16384EE7_GetPtrEjj(i32 noundef %6, i32 noundef %9)
          to label %11 unwind label %12

11:                                               ; preds = %1
  ret ptr %10

12:                                               ; preds = %1
  %13 = landingpad { ptr, i32 }
          catch ptr null
  %14 = extractvalue { ptr, i32 } %13, 0
  call void @__clang_call_terminate(ptr %14) #14
  unreachable
}

; Function Attrs: mustprogress nounwind uwtable
define linkonce_odr void @_ZN32pxrInternal_v0_24__pxrReserved__25TfDelegatedCountDecrementEPKNS_12Sdf_PathNodeE(ptr noundef %0) #0 comdat personality ptr @__gxx_personality_v0 {
  %2 = alloca ptr, align 8
  %3 = alloca i32, align 4
  %4 = alloca i32, align 4
  %5 = alloca i32, align 4
  %6 = alloca i32, align 4
  %7 = alloca ptr, align 8
  store ptr %0, ptr %7, align 8
  %8 = load ptr, ptr %7, align 8
  %9 = getelementptr inbounds nuw %"class.pxrInternal_v0_24__pxrReserved__::Sdf_PathNode", ptr %8, i32 0, i32 1
  store ptr %9, ptr %2, align 8
  store i32 1, ptr %3, align 4
  store i32 5, ptr %4, align 4
  %10 = load ptr, ptr %2, align 8
  %11 = load i32, ptr %4, align 4
  %12 = load i32, ptr %3, align 4
  store i32 %12, ptr %5, align 4
  switch i32 %11, label %13 [
    i32 1, label %16
    i32 2, label %16
    i32 3, label %19
    i32 4, label %22
    i32 5, label %25
  ]

13:                                               ; preds = %1
  %14 = load i32, ptr %5, align 4
  %15 = atomicrmw sub ptr %10, i32 %14 monotonic, align 4
  store i32 %15, ptr %6, align 4
  br label %28

16:                                               ; preds = %1, %1
  %17 = load i32, ptr %5, align 4
  %18 = atomicrmw sub ptr %10, i32 %17 acquire, align 4
  store i32 %18, ptr %6, align 4
  br label %28

19:                                               ; preds = %1
  %20 = load i32, ptr %5, align 4
  %21 = atomicrmw sub ptr %10, i32 %20 release, align 4
  store i32 %21, ptr %6, align 4
  br label %28

22:                                               ; preds = %1
  %23 = load i32, ptr %5, align 4
  %24 = atomicrmw sub ptr %10, i32 %23 acq_rel, align 4
  store i32 %24, ptr %6, align 4
  br label %28

25:                                               ; preds = %1
  %26 = load i32, ptr %5, align 4
  %27 = atomicrmw sub ptr %10, i32 %26 seq_cst, align 4
  store i32 %27, ptr %6, align 4
  br label %28

28:                                               ; preds = %25, %22, %19, %16, %13
  %29 = load i32, ptr %6, align 4
  %30 = and i32 %29, 2147483647
  %31 = icmp eq i32 %30, 1
  br i1 %31, label %32, label %35

32:                                               ; preds = %28
  %33 = load ptr, ptr %7, align 8
  invoke void @_ZNK32pxrInternal_v0_24__pxrReserved__12Sdf_PathNode8_DestroyEv(ptr noundef nonnull align 8 dereferenceable(16) %33)
          to label %34 unwind label %36

34:                                               ; preds = %32
  br label %35

35:                                               ; preds = %34, %28
  ret void

36:                                               ; preds = %32
  %37 = landingpad { ptr, i32 }
          catch ptr null
  %38 = extractvalue { ptr, i32 } %37, 0
  call void @__clang_call_terminate(ptr %38) #14
  unreachable
}

; Function Attrs: mustprogress nounwind uwtable
define linkonce_odr noundef ptr @_ZNK32pxrInternal_v0_24__pxrReserved__22Sdf_PathNodeHandleImplINS_8Sdf_PoolINS_15Sdf_PathPrimTagELj24ELj8ELj16384EE6HandleELb1EKNS_12Sdf_PathNodeEE3getEv(ptr noundef nonnull align 4 dereferenceable(4) %0) #0 comdat align 2 {
  %2 = alloca ptr, align 8
  store ptr %0, ptr %2, align 8
  %3 = load ptr, ptr %2, align 8
  %4 = getelementptr inbounds nuw %"struct.pxrInternal_v0_24__pxrReserved__::Sdf_PathNodeHandleImpl", ptr %3, i32 0, i32 0
  %5 = call noundef ptr @_ZNK32pxrInternal_v0_24__pxrReserved__8Sdf_PoolINS_15Sdf_PathPrimTagELj24ELj8ELj16384EE6Handle6GetPtrEv(ptr noundef nonnull align 4 dereferenceable(4) %4) #13
  ret ptr %5
}

; Function Attrs: mustprogress nounwind uwtable
define linkonce_odr void @_ZNK32pxrInternal_v0_24__pxrReserved__22Sdf_PathNodeHandleImplINS_8Sdf_PoolINS_15Sdf_PathPrimTagELj24ELj8ELj16384EE6HandleELb1EKNS_12Sdf_PathNodeEE7_DecRefEv(ptr noundef nonnull align 4 dereferenceable(4) %0) #0 comdat align 2 {
  %2 = alloca ptr, align 8
  store ptr %0, ptr %2, align 8
  %3 = load ptr, ptr %2, align 8
  %4 = call noundef ptr @_ZNK32pxrInternal_v0_24__pxrReserved__22Sdf_PathNodeHandleImplINS_8Sdf_PoolINS_15Sdf_PathPrimTagELj24ELj8ELj16384EE6HandleELb1EKNS_12Sdf_PathNodeEE3getEv(ptr noundef nonnull align 4 dereferenceable(4) %3) #13
  call void @_ZN32pxrInternal_v0_24__pxrReserved__25TfDelegatedCountDecrementEPKNS_12Sdf_PathNodeE(ptr noundef %4) #13
  ret void
}

; Function Attrs: mustprogress nounwind uwtable
define linkonce_odr noundef zeroext i1 @_ZNK32pxrInternal_v0_24__pxrReserved__8Sdf_PoolINS_15Sdf_PathPrimTagELj24ELj8ELj16384EE6HandlecvbEv(ptr noundef nonnull align 4 dereferenceable(4) %0) #0 comdat align 2 {
  %2 = alloca ptr, align 8
  store ptr %0, ptr %2, align 8
  %3 = load ptr, ptr %2, align 8
  %4 = getelementptr inbounds nuw %"struct.pxrInternal_v0_24__pxrReserved__::Sdf_Pool<pxrInternal_v0_24__pxrReserved__::Sdf_PathPrimTag, 24, 8>::Handle", ptr %3, i32 0, i32 0
  %5 = load i32, ptr %4, align 4
  %6 = icmp ne i32 %5, 0
  ret i1 %6
}

; Function Attrs: mustprogress nounwind uwtable
define linkonce_odr void @_ZNK32pxrInternal_v0_24__pxrReserved__22Sdf_PathNodeHandleImplINS_8Sdf_PoolINS_15Sdf_PathPropTagELj24ELj8ELj16384EE6HandleELb0EKNS_12Sdf_PathNodeEE7_DecRefEv(ptr noundef nonnull align 4 dereferenceable(4) %0) #0 comdat align 2 {
  %2 = alloca ptr, align 8
  store ptr %0, ptr %2, align 8
  ret void
}

; Function Attrs: mustprogress nounwind uwtable
define linkonce_odr noundef zeroext i1 @_ZNK32pxrInternal_v0_24__pxrReserved__8Sdf_PoolINS_15Sdf_PathPropTagELj24ELj8ELj16384EE6HandlecvbEv(ptr noundef nonnull align 4 dereferenceable(4) %0) #0 comdat align 2 {
  %2 = alloca ptr, align 8
  store ptr %0, ptr %2, align 8
  %3 = load ptr, ptr %2, align 8
  %4 = getelementptr inbounds nuw %"struct.pxrInternal_v0_24__pxrReserved__::Sdf_Pool<pxrInternal_v0_24__pxrReserved__::Sdf_PathPropTag, 24, 8>::Handle", ptr %3, i32 0, i32 0
  %5 = load i32, ptr %4, align 4
  %6 = icmp ne i32 %5, 0
  ret i1 %6
}

; Function Attrs: mustprogress nounwind uwtable
define linkonce_odr void @_ZN32pxrInternal_v0_24__pxrReserved__22Sdf_PathNodeHandleImplINS_8Sdf_PoolINS_15Sdf_PathPrimTagELj24ELj8ELj16384EE6HandleELb1EKNS_12Sdf_PathNodeEED2Ev(ptr noundef nonnull align 4 dereferenceable(4) %0) unnamed_addr #0 comdat align 2 personality ptr @__gxx_personality_v0 {
  %2 = alloca ptr, align 8
  store ptr %0, ptr %2, align 8
  %3 = load ptr, ptr %2, align 8
  %4 = getelementptr inbounds nuw %"struct.pxrInternal_v0_24__pxrReserved__::Sdf_PathNodeHandleImpl", ptr %3, i32 0, i32 0
  %5 = call noundef zeroext i1 @_ZNK32pxrInternal_v0_24__pxrReserved__8Sdf_PoolINS_15Sdf_PathPrimTagELj24ELj8ELj16384EE6HandlecvbEv(ptr noundef nonnull align 4 dereferenceable(4) %4)
  br i1 %5, label %6, label %8

6:                                                ; preds = %1
  invoke void @_ZNK32pxrInternal_v0_24__pxrReserved__22Sdf_PathNodeHandleImplINS_8Sdf_PoolINS_15Sdf_PathPrimTagELj24ELj8ELj16384EE6HandleELb1EKNS_12Sdf_PathNodeEE7_DecRefEv(ptr noundef nonnull align 4 dereferenceable(4) %3)
          to label %7 unwind label %9

7:                                                ; preds = %6
  br label %8

8:                                                ; preds = %7, %1
  ret void

9:                                                ; preds = %6
  %10 = landingpad { ptr, i32 }
          catch ptr null
  %11 = extractvalue { ptr, i32 } %10, 0
  call void @__clang_call_terminate(ptr %11) #14
  unreachable
}

; Function Attrs: mustprogress nounwind uwtable
define linkonce_odr void @_ZN32pxrInternal_v0_24__pxrReserved__22Sdf_PathNodeHandleImplINS_8Sdf_PoolINS_15Sdf_PathPropTagELj24ELj8ELj16384EE6HandleELb0EKNS_12Sdf_PathNodeEED2Ev(ptr noundef nonnull align 4 dereferenceable(4) %0) unnamed_addr #0 comdat align 2 personality ptr @__gxx_personality_v0 {
  %2 = alloca ptr, align 8
  store ptr %0, ptr %2, align 8
  %3 = load ptr, ptr %2, align 8
  %4 = getelementptr inbounds nuw %"struct.pxrInternal_v0_24__pxrReserved__::Sdf_PathNodeHandleImpl.33", ptr %3, i32 0, i32 0
  %5 = invoke noundef zeroext i1 @_ZNK32pxrInternal_v0_24__pxrReserved__8Sdf_PoolINS_15Sdf_PathPropTagELj24ELj8ELj16384EE6HandlecvbEv(ptr noundef nonnull align 4 dereferenceable(4) %4)
          to label %6 unwind label %10

6:                                                ; preds = %1
  br i1 %5, label %7, label %9

7:                                                ; preds = %6
  invoke void @_ZNK32pxrInternal_v0_24__pxrReserved__22Sdf_PathNodeHandleImplINS_8Sdf_PoolINS_15Sdf_PathPropTagELj24ELj8ELj16384EE6HandleELb0EKNS_12Sdf_PathNodeEE7_DecRefEv(ptr noundef nonnull align 4 dereferenceable(4) %3)
          to label %8 unwind label %10

8:                                                ; preds = %7
  br label %9

9:                                                ; preds = %8, %6
  ret void

10:                                               ; preds = %7, %1
  %11 = landingpad { ptr, i32 }
          catch ptr null
  %12 = extractvalue { ptr, i32 } %11, 0
  call void @__clang_call_terminate(ptr %12) #14
  unreachable
}

; Function Attrs: mustprogress nounwind uwtable
define linkonce_odr void @_ZN32pxrInternal_v0_24__pxrReserved__7SdfPathD2Ev(ptr noundef nonnull align 4 dereferenceable(8) %0) unnamed_addr #0 comdat align 2 {
  %2 = alloca ptr, align 8
  store ptr %0, ptr %2, align 8
  %3 = load ptr, ptr %2, align 8
  %4 = getelementptr inbounds nuw %"class.pxrInternal_v0_24__pxrReserved__::SdfPath", ptr %3, i32 0, i32 1
  call void @_ZN32pxrInternal_v0_24__pxrReserved__22Sdf_PathNodeHandleImplINS_8Sdf_PoolINS_15Sdf_PathPropTagELj24ELj8ELj16384EE6HandleELb0EKNS_12Sdf_PathNodeEED2Ev(ptr noundef nonnull align 4 dereferenceable(4) %4) #13
  %5 = getelementptr inbounds nuw %"class.pxrInternal_v0_24__pxrReserved__::SdfPath", ptr %3, i32 0, i32 0
  call void @_ZN32pxrInternal_v0_24__pxrReserved__22Sdf_PathNodeHandleImplINS_8Sdf_PoolINS_15Sdf_PathPrimTagELj24ELj8ELj16384EE6HandleELb1EKNS_12Sdf_PathNodeEED2Ev(ptr noundef nonnull align 4 dereferenceable(4) %5) #13
  ret void
}

; Function Attrs: mustprogress nounwind uwtable
define internal void @_ZNSt4pairIN32pxrInternal_v0_24__pxrReserved__7SdfPathEZNS0_60UsdComputePathExpressionFromCollectionMembershipQueryRuleMapERKSt13unordered_mapIS1_NS0_7TfTokenENS1_4HashESt8equal_toIS1_ESaIS_IKS1_S3_EEEE4RuleED2Ev(ptr noundef nonnull align 4 dereferenceable(12) %0) unnamed_addr #0 align 2 {
  %2 = alloca ptr, align 8
  store ptr %0, ptr %2, align 8
  %3 = load ptr, ptr %2, align 8
  %4 = getelementptr inbounds nuw %"struct.std::pair.165", ptr %3, i32 0, i32 0
  call void @_ZN32pxrInternal_v0_24__pxrReserved__7SdfPathD2Ev(ptr noundef nonnull align 4 dereferenceable(8) %4) #13
  ret void
}